target datalayout = "e-m:e-p270:32:32-p271:32:32-p272:64:64-i64:64-i128:128-f80:128-n8:16:32:64-S128"
target triple = "x86_64-pc-linux-gnu"

; Function Attrs: alwaysinline nounwind willreturn memory(none) uwtable
define internal zeroext i16 @av_bswap16(i16 noundef zeroext %0) #4 {
  %2 = alloca i16, align 2
  store i16 %0, ptr %2, align 2, !tbaa !44
  %3 = load i16, ptr %2, align 2, !tbaa !44
  %4 = zext i16 %3 to i32
  %5 = ashr i32 %4, 8
  %6 = load i16, ptr %2, align 2, !tbaa !44
  %7 = zext i16 %6 to i32
  %8 = shl i32 %7, 8
  %9 = or i32 %5, %8
  %10 = trunc i32 %9 to i16
  store i16 %10, ptr %2, align 2, !tbaa !44
  %11 = load i16, ptr %2, align 2, !tbaa !44
  ret i16 %11
}

; Function Attrs: alwaysinline nounwind uwtable
define internal void @rgb64ToUV_c_template(ptr noundef %0, ptr noundef %1, ptr noundef %2, ptr noundef %3, i32 noundef %4, i32 noundef %5, ptr noundef %6, i32 noundef %7) #3 {
  %9 = alloca ptr, align 8
  %10 = alloca ptr, align 8
  %11 = alloca ptr, align 8
  %12 = alloca ptr, align 8
  %13 = alloca i32, align 4
  %14 = alloca i32, align 4
  %15 = alloca ptr, align 8
  %16 = alloca i32, align 4
  %17 = alloca i32, align 4
  %18 = alloca i32, align 4
  %19 = alloca i32, align 4
  %20 = alloca i32, align 4
  %21 = alloca i32, align 4
  %22 = alloca i32, align 4
  %23 = alloca i32, align 4
  %24 = alloca i32, align 4
  %25 = alloca i32, align 4
  %26 = alloca i32, align 4
  store ptr %0, ptr %9, align 8, !tbaa !43
  store ptr %1, ptr %10, align 8, !tbaa !43
  store ptr %2, ptr %11, align 8, !tbaa !43
  store ptr %3, ptr %12, align 8, !tbaa !43
  store i32 %4, ptr %13, align 4, !tbaa !30
  store i32 %5, ptr %14, align 4, !tbaa !30
  store ptr %6, ptr %15, align 8, !tbaa !35
  store i32 %7, ptr %16, align 4, !tbaa !30
  call void @llvm.lifetime.start.p0(i64 4, ptr %17) #9
  call void @llvm.lifetime.start.p0(i64 4, ptr %18) #9
  %27 = load ptr, ptr %15, align 8, !tbaa !35
  %28 = getelementptr inbounds i32, ptr %27, i64 3
  %29 = load i32, ptr %28, align 4, !tbaa !30
  store i32 %29, ptr %18, align 4, !tbaa !30
  call void @llvm.lifetime.start.p0(i64 4, ptr %19) #9
  %30 = load ptr, ptr %15, align 8, !tbaa !35
  %31 = getelementptr inbounds i32, ptr %30, i64 4
  %32 = load i32, ptr %31, align 4, !tbaa !30
  store i32 %32, ptr %19, align 4, !tbaa !30
  call void @llvm.lifetime.start.p0(i64 4, ptr %20) #9
  %33 = load ptr, ptr %15, align 8, !tbaa !35
  %34 = getelementptr inbounds i32, ptr %33, i64 5
  %35 = load i32, ptr %34, align 4, !tbaa !30
  store i32 %35, ptr %20, align 4, !tbaa !30
  call void @llvm.lifetime.start.p0(i64 4, ptr %21) #9
  %36 = load ptr, ptr %15, align 8, !tbaa !35
  %37 = getelementptr inbounds i32, ptr %36, i64 6
  %38 = load i32, ptr %37, align 4, !tbaa !30
  store i32 %38, ptr %21, align 4, !tbaa !30
  call void @llvm.lifetime.start.p0(i64 4, ptr %22) #9
  %39 = load ptr, ptr %15, align 8, !tbaa !35
  %40 = getelementptr inbounds i32, ptr %39, i64 7
  %41 = load i32, ptr %40, align 4, !tbaa !30
  store i32 %41, ptr %22, align 4, !tbaa !30
  call void @llvm.lifetime.start.p0(i64 4, ptr %23) #9
  %42 = load ptr, ptr %15, align 8, !tbaa !35
  %43 = getelementptr inbounds i32, ptr %42, i64 8
  %44 = load i32, ptr %43, align 4, !tbaa !30
  store i32 %44, ptr %23, align 4, !tbaa !30
  store i32 0, ptr %17, align 4, !tbaa !30
  br label %45

45:                                               ; preds = %219, %8
  %46 = load i32, ptr %17, align 4, !tbaa !30
  %47 = load i32, ptr %13, align 4, !tbaa !30
  %48 = icmp slt i32 %46, %47
  br i1 %48, label %49, label %222

49:                                               ; preds = %45
  call void @llvm.lifetime.start.p0(i64 4, ptr %24) #9
  %50 = load i32, ptr %16, align 4, !tbaa !30
  %51 = icmp ne i32 %50, 0
  br i1 %51, label %52, label %62

52:                                               ; preds = %49
  %53 = load ptr, ptr %11, align 8, !tbaa !43
  %54 = load i32, ptr %17, align 4, !tbaa !30
  %55 = mul nsw i32 %54, 4
  %56 = add nsw i32 %55, 0
  %57 = sext i32 %56 to i64
  %58 = getelementptr inbounds i16, ptr %53, i64 %57
  %59 = load i16, ptr %58, align 1, !tbaa !36
  %60 = call zeroext i16 @av_bswap16(i16 noundef zeroext %59) #10
  %61 = zext i16 %60 to i32
  br label %71

62:                                               ; preds = %49
  %63 = load ptr, ptr %11, align 8, !tbaa !43
  %64 = load i32, ptr %17, align 4, !tbaa !30
  %65 = mul nsw i32 %64, 4
  %66 = add nsw i32 %65, 0
  %67 = sext i32 %66 to i64
  %68 = getelementptr inbounds i16, ptr %63, i64 %67
  %69 = load i16, ptr %68, align 1, !tbaa !36
  %70 = zext i16 %69 to i32
  br label %71

71:                                               ; preds = %62, %52
  %72 = phi i32 [ %61, %52 ], [ %70, %62 ]
  store i32 %72, ptr %24, align 4, !tbaa !30
  call void @llvm.lifetime.start.p0(i64 4, ptr %25) #9
  %73 = load i32, ptr %16, align 4, !tbaa !30
  %74 = icmp ne i32 %73, 0
  br i1 %74, label %75, label %85

75:                                               ; preds = %71
  %76 = load ptr, ptr %11, align 8, !tbaa !43
  %77 = load i32, ptr %17, align 4, !tbaa !30
  %78 = mul nsw i32 %77, 4
  %79 = add nsw i32 %78, 1
  %80 = sext i32 %79 to i64
  %81 = getelementptr inbounds i16, ptr %76, i64 %80
  %82 = load i16, ptr %81, align 1, !tbaa !36
  %83 = call zeroext i16 @av_bswap16(i16 noundef zeroext %82) #10
  %84 = zext i16 %83 to i32
  br label %94

85:                                               ; preds = %71
  %86 = load ptr, ptr %11, align 8, !tbaa !43
  %87 = load i32, ptr %17, align 4, !tbaa !30
  %88 = mul nsw i32 %87, 4
  %89 = add nsw i32 %88, 1
  %90 = sext i32 %89 to i64
  %91 = getelementptr inbounds i16, ptr %86, i64 %90
  %92 = load i16, ptr %91, align 1, !tbaa !36
  %93 = zext i16 %92 to i32
  br label %94

94:                                               ; preds = %85, %75
  %95 = phi i32 [ %84, %75 ], [ %93, %85 ]
  store i32 %95, ptr %25, align 4, !tbaa !30
  call void @llvm.lifetime.start.p0(i64 4, ptr %26) #9
  %96 = load i32, ptr %16, align 4, !tbaa !30
  %97 = icmp ne i32 %96, 0
  br i1 %97, label %98, label %108

98:                                               ; preds = %94
  %99 = load ptr, ptr %11, align 8, !tbaa !43
  %100 = load i32, ptr %17, align 4, !tbaa !30
  %101 = mul nsw i32 %100, 4
  %102 = add nsw i32 %101, 2
  %103 = sext i32 %102 to i64
  %104 = getelementptr inbounds i16, ptr %99, i64 %103
  %105 = load i16, ptr %104, align 1, !tbaa !36
  %106 = call zeroext i16 @av_bswap16(i16 noundef zeroext %105) #10
  %107 = zext i16 %106 to i32
  br label %117

108:                                              ; preds = %94
  %109 = load ptr, ptr %11, align 8, !tbaa !43
  %110 = load i32, ptr %17, align 4, !tbaa !30
  %111 = mul nsw i32 %110, 4
  %112 = add nsw i32 %111, 2
  %113 = sext i32 %112 to i64
  %114 = getelementptr inbounds i16, ptr %109, i64 %113
  %115 = load i16, ptr %114, align 1, !tbaa !36
  %116 = zext i16 %115 to i32
  br label %117

117:                                              ; preds = %108, %98
  %118 = phi i32 [ %107, %98 ], [ %116, %108 ]
  store i32 %118, ptr %26, align 4, !tbaa !30
  %119 = load i32, ptr %18, align 4, !tbaa !30
  %120 = load i32, ptr %14, align 4, !tbaa !30
  %121 = icmp eq i32 %120, 57
  br i1 %121, label %131, label %122

122:                                              ; preds = %117
  %123 = load i32, ptr %14, align 4, !tbaa !30
  %124 = icmp eq i32 %123, 58
  br i1 %124, label %131, label %125

125:                                              ; preds = %122
  %126 = load i32, ptr %14, align 4, !tbaa !30
  %127 = icmp eq i32 %126, 106
  br i1 %127, label %131, label %128

128:                                              ; preds = %125
  %129 = load i32, ptr %14, align 4, !tbaa !30
  %130 = icmp eq i32 %129, 107
  br i1 %130, label %131, label %133

131:                                              ; preds = %128, %125, %122, %117
  %132 = load i32, ptr %26, align 4, !tbaa !30
  br label %135

133:                                              ; preds = %128
  %134 = load i32, ptr %24, align 4, !tbaa !30
  br label %135

135:                                              ; preds = %133, %131
  %136 = phi i32 [ %132, %131 ], [ %134, %133 ]
  %137 = mul i32 %119, %136
  %138 = load i32, ptr %19, align 4, !tbaa !30
  %139 = load i32, ptr %25, align 4, !tbaa !30
  %140 = mul i32 %138, %139
  %141 = add i32 %137, %140
  %142 = load i32, ptr %20, align 4, !tbaa !30
  %143 = load i32, ptr %14, align 4, !tbaa !30
  %144 = icmp eq i32 %143, 57
  br i1 %144, label %154, label %145

145:                                              ; preds = %135
  %146 = load i32, ptr %14, align 4, !tbaa !30
  %147 = icmp eq i32 %146, 58
  br i1 %147, label %154, label %148

148:                                              ; preds = %145
  %149 = load i32, ptr %14, align 4, !tbaa !30
  %150 = icmp eq i32 %149, 106
  br i1 %150, label %154, label %151

151:                                              ; preds = %148
  %152 = load i32, ptr %14, align 4, !tbaa !30
  %153 = icmp eq i32 %152, 107
  br i1 %153, label %154, label %156

154:                                              ; preds = %151, %148, %145, %135
  %155 = load i32, ptr %24, align 4, !tbaa !30
  br label %158

156:                                              ; preds = %151
  %157 = load i32, ptr %26, align 4, !tbaa !30
  br label %158

158:                                              ; preds = %156, %154
  %159 = phi i32 [ %155, %154 ], [ %157, %156 ]
  %160 = mul i32 %142, %159
  %161 = add i32 %141, %160
  %162 = add i32 %161, 1073758208
  %163 = lshr i32 %162, 15
  %164 = trunc i32 %163 to i16
  %165 = load ptr, ptr %9, align 8, !tbaa !43
  %166 = load i32, ptr %17, align 4, !tbaa !30
  %167 = sext i32 %166 to i64
  %168 = getelementptr inbounds i16, ptr %165, i64 %167
  store i16 %164, ptr %168, align 2, !tbaa !44
  %169 = load i32, ptr %21, align 4, !tbaa !30
  %170 = load i32, ptr %14, align 4, !tbaa !30
  %171 = icmp eq i32 %170, 57
  br i1 %171, label %181, label %172

172:                                              ; preds = %158
  %173 = load i32, ptr %14, align 4, !tbaa !30
  %174 = icmp eq i32 %173, 58
  br i1 %174, label %181, label %175

175:                                              ; preds = %172
  %176 = load i32, ptr %14, align 4, !tbaa !30
  %177 = icmp eq i32 %176, 106
  br i1 %177, label %181, label %178

178:                                              ; preds = %175
  %179 = load i32, ptr %14, align 4, !tbaa !30
  %180 = icmp eq i32 %179, 107
  br i1 %180, label %181, label %183

181:                                              ; preds = %178, %175, %172, %158
  %182 = load i32, ptr %26, align 4, !tbaa !30
  br label %185

183:                                              ; preds = %178
  %184 = load i32, ptr %24, align 4, !tbaa !30
  br label %185

185:                                              ; preds = %183, %181
  %186 = phi i32 [ %182, %181 ], [ %184, %183 ]
  %187 = mul i32 %169, %186
  %188 = load i32, ptr %22, align 4, !tbaa !30
  %189 = load i32, ptr %25, align 4, !tbaa !30
  %190 = mul i32 %188, %189
  %191 = add i32 %187, %190
  %192 = load i32, ptr %23, align 4, !tbaa !30
  %193 = load i32, ptr %14, align 4, !tbaa !30
  %194 = icmp eq i32 %193, 57
  br i1 %194, label %204, label %195

195:                                              ; preds = %185
  %196 = load i32, ptr %14, align 4, !tbaa !30
  %197 = icmp eq i32 %196, 58
  br i1 %197, label %204, label %198

198:                                              ; preds = %195
  %199 = load i32, ptr %14, align 4, !tbaa !30
  %200 = icmp eq i32 %199, 106
  br i1 %200, label %204, label %201

201:                                              ; preds = %198
  %202 = load i32, ptr %14, align 4, !tbaa !30
  %203 = icmp eq i32 %202, 107
  br i1 %203, label %204, label %206

204:                                              ; preds = %201, %198, %195, %185
  %205 = load i32, ptr %24, align 4, !tbaa !30
  br label %208

206:                                              ; preds = %201
  %207 = load i32, ptr %26, align 4, !tbaa !30
  br label %208

208:                                              ; preds = %206, %204
  %209 = phi i32 [ %205, %204 ], [ %207, %206 ]
  %210 = mul i32 %192, %209
  %211 = add i32 %191, %210
  %212 = add i32 %211, 1073758208
  %213 = lshr i32 %212, 15
  %214 = trunc i32 %213 to i16
  %215 = load ptr, ptr %10, align 8, !tbaa !43
  %216 = load i32, ptr %17, align 4, !tbaa !30
  %217 = sext i32 %216 to i64
  %218 = getelementptr inbounds i16, ptr %215, i64 %217
  store i16 %214, ptr %218, align 2, !tbaa !44
  call void @llvm.lifetime.end.p0(i64 4, ptr %26) #9
  call void @llvm.lifetime.end.p0(i64 4, ptr %25) #9
  call void @llvm.lifetime.end.p0(i64 4, ptr %24) #9
  br label %219

219:                                              ; preds = %208
  %220 = load i32, ptr %17, align 4, !tbaa !30
  %221 = add nsw i32 %220, 1
  store i32 %221, ptr %17, align 4, !tbaa !30
  br label %45, !llvm.loop !147

222:                                              ; preds = %45
  call void @llvm.lifetime.end.p0(i64 4, ptr %23) #9
  call void @llvm.lifetime.end.p0(i64 4, ptr %22) #9
  call void @llvm.lifetime.end.p0(i64 4, ptr %21) #9
  call void @llvm.lifetime.end.p0(i64 4, ptr %20) #9
  call void @llvm.lifetime.end.p0(i64 4, ptr %19) #9
  call void @llvm.lifetime.end.p0(i64 4, ptr %18) #9
  call void @llvm.lifetime.end.p0(i64 4, ptr %17) #9
  ret void
}

; Function Attrs: nounwind uwtable
define internal void @rgb64LEToUV_c(ptr noundef %0, ptr noundef %1, ptr noundef %2, ptr noundef %3, ptr noundef %4, i32 noundef %5, ptr noundef %6, ptr noundef %7) #2 {
  %9 = alloca ptr, align 8
  %10 = alloca ptr, align 8
  %11 = alloca ptr, align 8
  %12 = alloca ptr, align 8
  %13 = alloca ptr, align 8
  %14 = alloca i32, align 4
  %15 = alloca ptr, align 8
  %16 = alloca ptr, align 8
  %17 = alloca ptr, align 8
  %18 = alloca ptr, align 8
  %19 = alloca ptr, align 8
  %20 = alloca ptr, align 8
  store ptr %0, ptr %9, align 8, !tbaa !34
  store ptr %1, ptr %10, align 8, !tbaa !34
  store ptr %2, ptr %11, align 8, !tbaa !34
  store ptr %3, ptr %12, align 8, !tbaa !34
  store ptr %4, ptr %13, align 8, !tbaa !34
  store i32 %5, ptr %14, align 4, !tbaa !30
  store ptr %6, ptr %15, align 8, !tbaa !35
  store ptr %7, ptr %16, align 8, !tbaa !31
  call void @llvm.lifetime.start.p0(i64 8, ptr %17) #9
  %21 = load ptr, ptr %12, align 8, !tbaa !34
  store ptr %21, ptr %17, align 8, !tbaa !43
  call void @llvm.lifetime.start.p0(i64 8, ptr %18) #9
  %22 = load ptr, ptr %13, align 8, !tbaa !34
  store ptr %22, ptr %18, align 8, !tbaa !43
  call void @llvm.lifetime.start.p0(i64 8, ptr %19) #9
  %23 = load ptr, ptr %9, align 8, !tbaa !34
  store ptr %23, ptr %19, align 8, !tbaa !43
  call void @llvm.lifetime.start.p0(i64 8, ptr %20) #9
  %24 = load ptr, ptr %10, align 8, !tbaa !34
  store ptr %24, ptr %20, align 8, !tbaa !43
  %25 = load ptr, ptr %19, align 8, !tbaa !43
  %26 = load ptr, ptr %20, align 8, !tbaa !43
  %27 = load ptr, ptr %17, align 8, !tbaa !43
  %28 = load ptr, ptr %18, align 8, !tbaa !43
  %29 = load i32, ptr %14, align 4, !tbaa !30
  %30 = load ptr, ptr %15, align 8, !tbaa !35
  call void @rgb64ToUV_c_template(ptr noundef %25, ptr noundef %26, ptr noundef %27, ptr noundef %28, i32 noundef %29, i32 noundef 105, ptr noundef %30, i32 noundef 0)
  call void @llvm.lifetime.end.p0(i64 8, ptr %20) #9
  call void @llvm.lifetime.end.p0(i64 8, ptr %19) #9
  call void @llvm.lifetime.end.p0(i64 8, ptr %18) #9
  call void @llvm.lifetime.end.p0(i64 8, ptr %17) #9
  ret void
}