; Function Attrs: nofree norecurse nosync nounwind memory(argmem: readwrite) uwtable
define internal void @rgb64LEToUV_c(ptr noundef writeonly captures(none) %0, ptr noundef writeonly captures(none) %1, ptr readnone captures(none) %2, ptr noundef readonly captures(none) %3, ptr readnone captures(none) %4, i32 noundef %5, ptr noundef readonly captures(none) %6, ptr readnone captures(none) %7) #1 {
  %9 = getelementptr inbounds nuw i8, ptr %6, i64 12
  %10 = load i32, ptr %9, align 4, !tbaa !42
  %11 = getelementptr inbounds nuw i8, ptr %6, i64 16
  %12 = load i32, ptr %11, align 4, !tbaa !42
  %13 = getelementptr inbounds nuw i8, ptr %6, i64 20
  %14 = load i32, ptr %13, align 4, !tbaa !42
  %15 = getelementptr inbounds nuw i8, ptr %6, i64 24
  %16 = load i32, ptr %15, align 4, !tbaa !42
  %17 = getelementptr inbounds nuw i8, ptr %6, i64 28
  %18 = load i32, ptr %17, align 4, !tbaa !42
  %19 = getelementptr inbounds nuw i8, ptr %6, i64 32
  %20 = load i32, ptr %19, align 4, !tbaa !42
  %21 = icmp sgt i32 %5, 0
  br i1 %21, label %.lr.ph.preheader, label %rgb64ToUV_c_template.exit

.lr.ph.preheader:                                 ; preds = %8
  %wide.trip.count = zext nneg i32 %5 to i64
  br label %.lr.ph

.lr.ph:                                           ; preds = %.lr.ph.preheader, %.lr.ph
  %indvars.iv = phi i64 [ 0, %.lr.ph.preheader ], [ %indvars.iv.next, %.lr.ph ]
  %.idx = shl nsw i64 %indvars.iv, 3
  %22 = getelementptr inbounds nuw i8, ptr %3, i64 %.idx
  %23 = load i16, ptr %22, align 1, !tbaa !34
  %24 = zext i16 %23 to i32
  %25 = getelementptr inbounds nuw i8, ptr %22, i64 2
  %26 = load i16, ptr %25, align 1, !tbaa !34
  %27 = zext i16 %26 to i32
  %28 = getelementptr inbounds nuw i8, ptr %22, i64 4
  %29 = load i16, ptr %28, align 1, !tbaa !34
  %30 = zext i16 %29 to i32
  %31 = mul i32 %10, %24
  %32 = mul i32 %12, %27
  %33 = mul i32 %14, %30
  %34 = add i32 %31, 1073758208
  %35 = add i32 %34, %32
  %36 = add i32 %35, %33
  %37 = lshr i32 %36, 15
  %38 = trunc i32 %37 to i16
  %39 = getelementptr inbounds nuw i16, ptr %0, i64 %indvars.iv
  store i16 %38, ptr %39, align 2, !tbaa !43
  %40 = mul i32 %16, %24
  %41 = mul i32 %18, %27
  %42 = mul i32 %20, %30
  %43 = add i32 %40, 1073758208
  %44 = add i32 %43, %41
  %45 = add i32 %44, %42
  %46 = lshr i32 %45, 15
  %47 = trunc i32 %46 to i16
  %48 = getelementptr inbounds nuw i16, ptr %1, i64 %indvars.iv
  store i16 %47, ptr %48, align 2, !tbaa !43
  %indvars.iv.next = add nuw nsw i64 %indvars.iv, 1
  %exitcond.not = icmp eq i64 %indvars.iv.next, %wide.trip.count
  br i1 %exitcond.not, label %rgb64ToUV_c_template.exit, label %.lr.ph, !llvm.loop !84

rgb64ToUV_c_template.exit:                        ; preds = %.lr.ph, %8
  ret void
}